; Function Attrs: mustprogress nofree norecurse nosync nounwind willreturn memory(argmem: readwrite) uwtable
define dso_local void @_ZN4llvm11Instruction20setHasNoUnsignedWrapEb(ptr nocapture noundef nonnull align 8 dereferenceable(72) %0, i1 noundef zeroext %1) local_unnamed_addr #6 align 2 {
_ZN4llvm8dyn_castINS_25OverflowingBinaryOperatorENS_11InstructionEEEDcPT0_.exit:
  %2 = getelementptr inbounds nuw i8, ptr %0, i64 1
  %3 = load i8, ptr %2, align 1
  %4 = select i1 %1, i8 2, i8 0
  %5 = and i8 %3, -3
  %6 = or disjoint i8 %5, %4
  store i8 %6, ptr %2, align 1
  ret void
}